; Function Attrs: nounwind sspstrong uwtable
define internal i64 @rb_inflate_inflate(i32 noundef %0, ptr noundef %1, i64 noundef %2) #0 {
  %4 = alloca %struct.rb_zlib_inflate_arguments, align 8
  %5 = tail call ptr @rb_check_typeddata(i64 noundef %2, ptr noundef nonnull @zstream_data_type) #18
  %6 = load i64, ptr %5, align 8, !tbaa !42
  %7 = and i64 %6, 1
  %.not.i = icmp eq i64 %7, 0
  br i1 %.not.i, label %8, label %get_zstream.exit

8:                                                ; preds = %3
  %9 = load i64, ptr @cZError, align 8, !tbaa !6
  tail call void (i64, ptr, ...) @rb_raise(i64 noundef %9, ptr noundef nonnull @.str.150) #19
  unreachable

get_zstream.exit:                                 ; preds = %3
  call void @llvm.lifetime.start.p0(i64 24, ptr nonnull %4) #18
  store ptr %5, ptr %4, align 8, !tbaa !94
  %10 = getelementptr inbounds nuw i8, ptr %4, i64 8
  store i32 %0, ptr %10, align 8, !tbaa !96
  %11 = getelementptr inbounds nuw i8, ptr %4, i64 12
  store i32 0, ptr %11, align 4
  %12 = getelementptr inbounds nuw i8, ptr %4, i64 16
  store ptr %1, ptr %12, align 8, !tbaa !97
  %13 = getelementptr inbounds nuw i8, ptr %5, i64 24
  %14 = load i64, ptr %13, align 8, !tbaa !70
  %15 = ptrtoint ptr %4 to i64
  %16 = call i64 @rb_mutex_synchronize(i64 noundef %14, ptr noundef nonnull @rb_inflate_inflate_body, i64 noundef %15) #18
  call void @llvm.lifetime.end.p0(i64 24, ptr nonnull %4) #18
  ret i64 %16
}